target datalayout = "e-m:e-p270:32:32-p271:32:32-p272:64:64-i64:64-i128:128-f80:128-n8:16:32:64-S128"
target triple = "x86_64-unknown-linux-gnu"

%"class.Assimp::Exporter" = type { ptr }

; Function Attrs: mustprogress uwtable
define ptr @aiExportSceneToBlob(ptr noundef %pScene, ptr noundef %pFormatId, i32 noundef %pPreprocessing) #2 personality ptr @__gxx_personality_v0 {
entry:
  %retval = alloca ptr, align 8
  %pScene.addr = alloca ptr, align 8
  %pFormatId.addr = alloca ptr, align 8
  %pPreprocessing.addr = alloca i32, align 4
  %exp = alloca %"class.Assimp::Exporter", align 8
  %exn.slot = alloca ptr, align 8
  %ehselector.slot = alloca i32, align 4
  %cleanup.dest.slot = alloca i32, align 4
  %blob = alloca ptr, align 8
  store ptr %pScene, ptr %pScene.addr, align 8
  store ptr %pFormatId, ptr %pFormatId.addr, align 8
  store i32 %pPreprocessing, ptr %pPreprocessing.addr, align 4
  call void @_ZN6Assimp8ExporterC1Ev(ptr noundef nonnull align 8 dereferenceable(8) %exp)
  %0 = load ptr, ptr %pScene.addr, align 8
  %1 = load ptr, ptr %pFormatId.addr, align 8
  %2 = load i32, ptr %pPreprocessing.addr, align 4
  %call = invoke noundef ptr @_ZN6Assimp8Exporter12ExportToBlobEPK7aiScenePKcjPKNS_16ExportPropertiesE(ptr noundef nonnull align 8 dereferenceable(8) %exp, ptr noundef %0, ptr noundef %1, i32 noundef %2, ptr noundef null)
          to label %invoke.cont unwind label %lpad

invoke.cont:                                      ; preds = %entry
  %tobool = icmp ne ptr %call, null
  br i1 %tobool, label %if.end, label %if.then

if.then:                                          ; preds = %invoke.cont
  store ptr null, ptr %retval, align 8
  store i32 1, ptr %cleanup.dest.slot, align 4
  br label %cleanup

lpad:                                             ; preds = %if.end, %entry
  %3 = landingpad { ptr, i32 }
          cleanup
  %4 = extractvalue { ptr, i32 } %3, 0
  store ptr %4, ptr %exn.slot, align 8
  %5 = extractvalue { ptr, i32 } %3, 1
  store i32 %5, ptr %ehselector.slot, align 4
  call void @_ZN6Assimp8ExporterD1Ev(ptr noundef nonnull align 8 dereferenceable(8) %exp) #13
  br label %eh.resume

if.end:                                           ; preds = %invoke.cont
  %call2 = invoke noundef ptr @_ZNK6Assimp8Exporter15GetOrphanedBlobEv(ptr noundef nonnull align 8 dereferenceable(8) %exp)
          to label %invoke.cont1 unwind label %lpad

invoke.cont1:                                     ; preds = %if.end
  store ptr %call2, ptr %blob, align 8
  %6 = load ptr, ptr %blob, align 8
  store ptr %6, ptr %retval, align 8
  store i32 1, ptr %cleanup.dest.slot, align 4
  br label %cleanup

cleanup:                                          ; preds = %invoke.cont1, %if.then
  call void @_ZN6Assimp8ExporterD1Ev(ptr noundef nonnull align 8 dereferenceable(8) %exp) #13
  %7 = load ptr, ptr %retval, align 8
  ret ptr %7

eh.resume:                                        ; preds = %lpad
  %exn = load ptr, ptr %exn.slot, align 8
  %sel = load i32, ptr %ehselector.slot, align 4
  %lpad.val = insertvalue { ptr, i32 } poison, ptr %exn, 0
  %lpad.val3 = insertvalue { ptr, i32 } %lpad.val, i32 %sel, 1
  resume { ptr, i32 } %lpad.val3
}