; Function Attrs: mustprogress uwtable
define noundef ptr @aiExportSceneToBlob(ptr noundef %pScene, ptr noundef %pFormatId, i32 noundef %pPreprocessing) local_unnamed_addr #0 personality ptr @__gxx_personality_v0 {
entry:
  %exp = alloca %"class.Assimp::Exporter", align 8
  call void @_ZN6Assimp8ExporterC1Ev(ptr noundef nonnull align 8 dereferenceable(8) %exp)
  %call = invoke noundef ptr @_ZN6Assimp8Exporter12ExportToBlobEPK7aiScenePKcjPKNS_16ExportPropertiesE(ptr noundef nonnull align 8 dereferenceable(8) %exp, ptr noundef %pScene, ptr noundef %pFormatId, i32 noundef %pPreprocessing, ptr noundef null)
          to label %invoke.cont unwind label %lpad

invoke.cont:                                      ; preds = %entry
  %tobool.not = icmp eq ptr %call, null
  br i1 %tobool.not, label %cleanup, label %if.end

lpad:                                             ; preds = %if.end, %entry
  %0 = landingpad { ptr, i32 }
          cleanup
  call void @_ZN6Assimp8ExporterD1Ev(ptr noundef nonnull align 8 dereferenceable(8) %exp) #10
  resume { ptr, i32 } %0

if.end:                                           ; preds = %invoke.cont
  %call2 = invoke noundef ptr @_ZNK6Assimp8Exporter15GetOrphanedBlobEv(ptr noundef nonnull align 8 dereferenceable(8) %exp)
          to label %cleanup unwind label %lpad

cleanup:                                          ; preds = %if.end, %invoke.cont
  %retval.0 = phi ptr [ null, %invoke.cont ], [ %call2, %if.end ]
  call void @_ZN6Assimp8ExporterD1Ev(ptr noundef nonnull align 8 dereferenceable(8) %exp) #10
  ret ptr %retval.0
}